target datalayout = "e-m:e-p270:32:32-p271:32:32-p272:64:64-i64:64-i128:128-f80:128-n8:16:32:64-S128"
target triple = "x86_64-pc-linux-gnu"

%class.V3LangCode = type { i8 }

@__const._ZNK10V3LangCode5asciiEv.names = private unnamed_addr constant [9 x ptr] [ptr @.str.443, ptr @.str.444, ptr @.str.445, ptr @.str.446, ptr @.str.447, ptr @.str.448, ptr @.str.449, ptr @.str.450, ptr @.str.451], align 16

; Function Attrs: mustprogress nounwind uwtable
define linkonce_odr dso_local noundef zeroext i8 @_ZNK10V3LangCodecvNS_2enEEv(ptr noundef nonnull align 1 dereferenceable(1) %0) #6 comdat align 2 {
  %2 = alloca ptr, align 8
  store ptr %0, ptr %2, align 8, !tbaa !4
  %3 = load ptr, ptr %2, align 8
  %4 = getelementptr inbounds nuw %class.V3LangCode, ptr %3, i32 0, i32 0
  %5 = load i8, ptr %4, align 1, !tbaa !13
  ret i8 %5
}

; Function Attrs: mustprogress nounwind uwtable
define linkonce_odr dso_local noundef ptr @_ZNK10V3LangCode5asciiEv(ptr noundef nonnull align 1 dereferenceable(1) %0) #6 comdat align 2 {
  %2 = alloca ptr, align 8
  %3 = alloca [9 x ptr], align 16
  store ptr %0, ptr %2, align 8, !tbaa !4
  %4 = load ptr, ptr %2, align 8
  call void @llvm.lifetime.start.p0(i64 72, ptr %3) #3
  call void @llvm.memcpy.p0.p0.i64(ptr align 16 %3, ptr align 16 @__const._ZNK10V3LangCode5asciiEv.names, i64 72, i1 false)
  %5 = getelementptr inbounds nuw %class.V3LangCode, ptr %4, i32 0, i32 0
  %6 = load i8, ptr %5, align 1, !tbaa !13
  %7 = zext i8 %6 to i64
  %8 = getelementptr inbounds nuw [9 x ptr], ptr %3, i64 0, i64 %7
  %9 = load ptr, ptr %8, align 8, !tbaa !9
  call void @llvm.lifetime.end.p0(i64 72, ptr %3) #3
  ret ptr %9
}

; Function Attrs: mustprogress nounwind uwtable
define linkonce_odr dso_local void @_ZN10V3LangCodeC2Ei(ptr noundef nonnull align 1 dereferenceable(1) %0, i32 noundef %1) unnamed_addr #6 comdat align 2 {
  %3 = alloca ptr, align 8
  %4 = alloca i32, align 4
  store ptr %0, ptr %3, align 8, !tbaa !4
  store i32 %1, ptr %4, align 4, !tbaa !11
  %5 = load ptr, ptr %3, align 8
  %6 = getelementptr inbounds nuw %class.V3LangCode, ptr %5, i32 0, i32 0
  %7 = load i32, ptr %4, align 4, !tbaa !11
  %8 = trunc i32 %7 to i8
  store i8 %8, ptr %6, align 1, !tbaa !13
  ret void
}

; Function Attrs: mustprogress uwtable
define dso_local void @_ZN10V3LangCodeC2EPKc(ptr noundef nonnull align 1 dereferenceable(1) %0, ptr noundef %1) unnamed_addr #4 align 2 {
  %3 = alloca ptr, align 8
  %4 = alloca ptr, align 8
  %5 = alloca i32, align 4
  %6 = alloca i32, align 4
  %7 = alloca %class.V3LangCode, align 1
  store ptr %0, ptr %3, align 8, !tbaa !4
  store ptr %1, ptr %4, align 8, !tbaa !9
  %8 = load ptr, ptr %3, align 8
  call void @llvm.lifetime.start.p0(i64 4, ptr %5) #3
  store i32 0, ptr %5, align 4, !tbaa !11
  br label %9

9:                                                ; preds = %26, %2
  %10 = load i32, ptr %5, align 4, !tbaa !11
  %11 = icmp slt i32 %10, 9
  br i1 %11, label %13, label %12

12:                                               ; preds = %9
  store i32 2, ptr %6, align 4
  br label %29

13:                                               ; preds = %9
  call void @llvm.lifetime.start.p0(i64 1, ptr %7) #3
  %14 = load i32, ptr %5, align 4, !tbaa !11
  call void @_ZN10V3LangCodeC2Ei(ptr noundef nonnull align 1 dereferenceable(1) %7, i32 noundef %14)
  %15 = load ptr, ptr %4, align 8, !tbaa !9
  %16 = call noundef ptr @_ZNK10V3LangCode5asciiEv(ptr noundef nonnull align 1 dereferenceable(1) %7)
  %17 = call i32 @strcasecmp(ptr noundef %15, ptr noundef %16) #22
  %18 = icmp eq i32 0, %17
  br i1 %18, label %19, label %22

19:                                               ; preds = %13
  %20 = call noundef zeroext i8 @_ZNK10V3LangCodecvNS_2enEEv(ptr noundef nonnull align 1 dereferenceable(1) %7)
  %21 = getelementptr inbounds nuw %class.V3LangCode, ptr %8, i32 0, i32 0
  store i8 %20, ptr %21, align 1, !tbaa !13
  store i32 1, ptr %6, align 4
  br label %23

22:                                               ; preds = %13
  store i32 0, ptr %6, align 4
  br label %23

23:                                               ; preds = %22, %19
  call void @llvm.lifetime.end.p0(i64 1, ptr %7) #3
  %24 = load i32, ptr %6, align 4
  switch i32 %24, label %29 [
    i32 0, label %25
  ]

25:                                               ; preds = %23
  br label %26

26:                                               ; preds = %25
  %27 = load i32, ptr %5, align 4, !tbaa !11
  %28 = add nsw i32 %27, 1
  store i32 %28, ptr %5, align 4, !tbaa !11
  br label %9, !llvm.loop !16

29:                                               ; preds = %23, %12
  call void @llvm.lifetime.end.p0(i64 4, ptr %5) #3
  %30 = load i32, ptr %6, align 4
  switch i32 %30, label %34 [
    i32 2, label %31
    i32 1, label %33
  ]

31:                                               ; preds = %29
  %32 = getelementptr inbounds nuw %class.V3LangCode, ptr %8, i32 0, i32 0
  store i8 0, ptr %32, align 1, !tbaa !13
  br label %33

33:                                               ; preds = %31, %29
  ret void

34:                                               ; preds = %29
  unreachable
}