; Function Attrs: mustprogress nofree nounwind memory(read, argmem: readwrite) uwtable
define dso_local void @_ZN10V3LangCodeC2EPKc(ptr noundef nonnull writeonly align 1 captures(none) dereferenceable(1) %0, ptr noundef readonly captures(none) %1) unnamed_addr #3 align 2 {
  br label %3

3:                                                ; preds = %2, %.critedge
  %indvars.iv = phi i64 [ 0, %2 ], [ %indvars.iv.next, %.critedge ]
  %4 = getelementptr inbounds nuw [9 x ptr], ptr @__const._ZNK10V3LangCode5asciiEv.names, i64 0, i64 %indvars.iv
  %5 = load ptr, ptr %4, align 8, !tbaa !4
  %6 = tail call i32 @strcasecmp(ptr noundef %1, ptr noundef %5) #39
  %.not = icmp eq i32 %6, 0
  br i1 %.not, label %7, label %.critedge

.critedge:                                        ; preds = %3
  %indvars.iv.next = add nuw nsw i64 %indvars.iv, 1
  %exitcond.not = icmp eq i64 %indvars.iv.next, 9
  br i1 %exitcond.not, label %.loopexit, label %3, !llvm.loop !9

7:                                                ; preds = %3
  %8 = trunc i64 %indvars.iv to i8
  br label %.loopexit

.loopexit:                                        ; preds = %.critedge, %7
  %storemerge = phi i8 [ %8, %7 ], [ 0, %.critedge ]
  store i8 %storemerge, ptr %0, align 1, !tbaa !11
  ret void
}